target datalayout = "e-m:e-p270:32:32-p271:32:32-p272:64:64-i64:64-i128:128-f80:128-n8:16:32:64-S128"
target triple = "x86_64-pc-linux-gnu"

%struct.Agobj_s = type { %struct.Agtag_s, ptr }
%struct.Agtag_s = type { i32, i64 }
%struct.Agraphinfo_t = type { %struct.Agrec_s, ptr, ptr, %struct.boxf, [4 x %struct.pointf_s], i8, i8, i8, i8, i32, double, double, i16, ptr, ptr, ptr, ptr, i32, ptr, ptr, ptr, ptr, i16, i16, i32, ptr, ptr, ptr, ptr, ptr, i32, ptr, ptr, %struct.nlist_t, ptr, ptr, i64, i32, i32, i8, i8, i32, i32, i32, ptr, ptr, ptr, ptr, i8, i8, i8, i8, i8 }
%struct.Agrec_s = type { ptr, ptr }
%struct.boxf = type { %struct.pointf_s, %struct.pointf_s }
%struct.pointf_s = type { double, double }
%struct.nlist_t = type { ptr, i64 }
%struct.GVC_s = type { %struct.GVCOMMON_s, ptr, i8, ptr, i32, ptr, ptr, [5 x ptr], [5 x ptr], ptr, ptr, %struct._dtdisc_s, ptr, %struct.gvplugin_active_textlayout_s, ptr, ptr, ptr, %struct.gvplugin_active_layout_s, ptr, ptr, ptr, %struct.pointf_s, %struct.pointf_s, %struct.pointf_s, %struct.point, %struct.boxf, i32, i8, i8, i8, ptr, ptr, ptr, ptr, i32, ptr, ptr, double, ptr, %struct.color_s, i32 }
%struct.GVCOMMON_s = type { ptr, ptr, i32, i8, i8, ptr, ptr, ptr, i32, ptr, i32 }
%struct._dtdisc_s = type { i32, i32, i32, ptr, ptr, ptr }
%struct.gvplugin_active_textlayout_s = type { ptr, i32, ptr }
%struct.gvplugin_active_layout_s = type { ptr, i32, ptr, ptr }
%struct.point = type { i32, i32 }
%struct.color_s = type { %union.anon.0, i32 }
%union.anon.0 = type { [4 x double] }
%struct.GVJ_s = type { ptr, ptr, ptr, ptr, ptr, ptr, i32, ptr, ptr, ptr, ptr, i32, i32, ptr, i32, %struct.gvplugin_active_render_s, %struct.gvplugin_active_device_s, %struct.gvplugin_active_loadimage_t, ptr, %struct.pointf_s, i8, ptr, i32, ptr, i8, ptr, i32, i32, i32, %struct.point, %struct.point, %struct.point, %struct.point, %struct.point, i32, %struct.boxf, %struct.pointf_s, %struct.boxf, %struct.boxf, %struct.pointf_s, %struct.pointf_s, double, i32, %struct.pointf_s, %struct.boxf, %struct.pointf_s, %struct.pointf_s, i32, i32, %struct.box, %struct.box, %struct.pointf_s, %struct.pointf_s, %struct.pointf_s, i8, i8, i8, i8, i8, i8, %struct.pointf_s, %struct.pointf_s, ptr, ptr, ptr, ptr, %struct.gv_argvlist_s, %struct.gv_argvlist_s, ptr, ptr, i32, ptr }
%struct.gvplugin_active_render_s = type { ptr, i32, ptr, ptr }
%struct.gvplugin_active_device_s = type { ptr, i32, ptr, ptr }
%struct.gvplugin_active_loadimage_t = type { ptr, i32, ptr }
%struct.box = type { %struct.point, %struct.point }
%struct.gv_argvlist_s = type { ptr, i32, i32 }

@.str.6 = private unnamed_addr constant [44 x i8] c"Format: \22%s\22 not recognized. Use one of:%s\0A\00", align 1
@.str.7 = private unnamed_addr constant [13 x i8] c"Agraphinfo_t\00", align 1
@.str.8 = private unnamed_addr constant [21 x i8] c"Layout was not done\0A\00", align 1

; Function Attrs: nounwind uwtable
define i32 @gvRenderFilename(ptr noundef %0, ptr noundef %1, ptr noundef %2, ptr noundef %3) #0 {
  %5 = alloca i32, align 4
  %6 = alloca ptr, align 8
  %7 = alloca ptr, align 8
  %8 = alloca ptr, align 8
  %9 = alloca ptr, align 8
  %10 = alloca i32, align 4
  %11 = alloca ptr, align 8
  %12 = alloca i8, align 1
  store ptr %0, ptr %6, align 8
  store ptr %1, ptr %7, align 8
  store ptr %2, ptr %8, align 8
  store ptr %3, ptr %9, align 8
  %13 = load ptr, ptr %6, align 8
  %14 = load ptr, ptr %8, align 8
  %15 = call zeroext i1 @gvjobs_output_langname(ptr noundef %13, ptr noundef %14)
  %16 = zext i1 %15 to i8
  store i8 %16, ptr %12, align 1
  %17 = load ptr, ptr %6, align 8
  %18 = getelementptr inbounds %struct.GVC_s, ptr %17, i32 0, i32 15
  %19 = load ptr, ptr %18, align 8
  store ptr %19, ptr %11, align 8
  %20 = load i8, ptr %12, align 1
  %21 = trunc i8 %20 to i1
  br i1 %21, label %28, label %22

22:                                               ; preds = %4
  %23 = load ptr, ptr %8, align 8
  %24 = load ptr, ptr %6, align 8
  %25 = load ptr, ptr %8, align 8
  %26 = call ptr @gvplugin_list(ptr noundef %24, i32 noundef 3, ptr noundef %25)
  %27 = call i32 (i32, ptr, ...) @agerr(i32 noundef 1, ptr noundef @.str.6, ptr noundef %23, ptr noundef %26)
  store i32 -1, ptr %5, align 4
  br label %63

28:                                               ; preds = %4
  %29 = load ptr, ptr %11, align 8
  %30 = load ptr, ptr %11, align 8
  %31 = getelementptr inbounds %struct.GVJ_s, ptr %30, i32 0, i32 13
  %32 = load ptr, ptr %31, align 8
  %33 = call i32 @gvrender_select(ptr noundef %29, ptr noundef %32)
  %34 = load ptr, ptr %11, align 8
  %35 = getelementptr inbounds %struct.GVJ_s, ptr %34, i32 0, i32 14
  store i32 %33, ptr %35, align 8
  %36 = load ptr, ptr %7, align 8
  %37 = call ptr @agbindrec(ptr noundef %36, ptr noundef @.str.7, i32 noundef 0, i32 noundef 1)
  %38 = icmp ne ptr %37, null
  br i1 %38, label %39, label %46

39:                                               ; preds = %28
  %40 = load ptr, ptr %7, align 8
  %41 = getelementptr inbounds %struct.Agobj_s, ptr %40, i32 0, i32 1
  %42 = load ptr, ptr %41, align 8
  %43 = getelementptr inbounds %struct.Agraphinfo_t, ptr %42, i32 0, i32 1
  %44 = load ptr, ptr %43, align 8
  %45 = icmp ne ptr %44, null
  br i1 %45, label %53, label %46

46:                                               ; preds = %39, %28
  %47 = load ptr, ptr %11, align 8
  %48 = getelementptr inbounds %struct.GVJ_s, ptr %47, i32 0, i32 26
  %49 = load i32, ptr %48, align 8
  %50 = and i32 %49, 67108864
  %51 = icmp ne i32 %50, 0
  br i1 %51, label %53, label %52

52:                                               ; preds = %46
  call void (ptr, ...) @agerrorf(ptr noundef @.str.8)
  store i32 -1, ptr %5, align 4
  br label %63

53:                                               ; preds = %46, %39
  %54 = load ptr, ptr %6, align 8
  %55 = load ptr, ptr %9, align 8
  call void @gvjobs_output_filename(ptr noundef %54, ptr noundef %55)
  %56 = load ptr, ptr %6, align 8
  %57 = load ptr, ptr %7, align 8
  %58 = call i32 @gvRenderJobs(ptr noundef %56, ptr noundef %57)
  store i32 %58, ptr %10, align 4
  %59 = load ptr, ptr %11, align 8
  call void @gvrender_end_job(ptr noundef %59)
  %60 = load ptr, ptr %11, align 8
  call void @gvdevice_finalize(ptr noundef %60)
  %61 = load ptr, ptr %6, align 8
  call void @gvjobs_delete(ptr noundef %61)
  %62 = load i32, ptr %10, align 4
  store i32 %62, ptr %5, align 4
  br label %63

63:                                               ; preds = %53, %52, %22
  %64 = load i32, ptr %5, align 4
  ret i32 %64
}